target datalayout = "e-m:e-p270:32:32-p271:32:32-p272:64:64-i64:64-i128:128-f80:128-n8:16:32:64-S128"
target triple = "x86_64-pc-linux-gnu"

%class.Handle = type { ptr }
%class.ThreadShadow = type <{ ptr, ptr, ptr, i32, [4 x i8] }>
%class.JavaCallArguments = type { [9 x i64], [9 x i8], ptr, ptr, i32, i32, i8, %class.Handle }

; Function Attrs: mustprogress nounwind uwtable
define linkonce_odr hidden noundef ptr @_ZNK6Handle9raw_valueEv(ptr noundef nonnull align 8 dereferenceable(8) %0) #1 comdat align 2 {
  %2 = alloca ptr, align 8
  store ptr %0, ptr %2, align 8
  %3 = load ptr, ptr %2, align 8
  %4 = getelementptr inbounds %class.Handle, ptr %3, i32 0, i32 0
  %5 = load ptr, ptr %4, align 8
  ret ptr %5
}

; Function Attrs: mustprogress nounwind uwtable
define linkonce_odr hidden void @_ZN8JNITypes7put_objERK6HandlePlRi(ptr noundef nonnull align 8 dereferenceable(8) %0, ptr noundef %1, ptr noundef nonnull align 4 dereferenceable(4) %2) #1 comdat align 2 {
  %4 = alloca ptr, align 8
  %5 = alloca ptr, align 8
  %6 = alloca ptr, align 8
  store ptr %0, ptr %4, align 8
  store ptr %1, ptr %5, align 8
  store ptr %2, ptr %6, align 8
  %7 = load ptr, ptr %4, align 8
  %8 = call noundef ptr @_ZNK6Handle9raw_valueEv(ptr noundef nonnull align 8 dereferenceable(8) %7)
  %9 = ptrtoint ptr %8 to i64
  %10 = load ptr, ptr %5, align 8
  %11 = load ptr, ptr %6, align 8
  %12 = load i32, ptr %11, align 4
  %13 = add nsw i32 %12, 1
  store i32 %13, ptr %11, align 4
  %14 = sext i32 %12 to i64
  %15 = getelementptr inbounds i64, ptr %10, i64 %14
  store i64 %9, ptr %15, align 8
  ret void
}

; Function Attrs: mustprogress nounwind uwtable
define linkonce_odr hidden void @_ZN17JavaCallArguments10initializeEv(ptr noundef nonnull align 8 dereferenceable(128) %0) #1 comdat align 2 {
  %2 = alloca ptr, align 8
  store ptr %0, ptr %2, align 8
  %3 = load ptr, ptr %2, align 8
  %4 = getelementptr inbounds %class.JavaCallArguments, ptr %3, i32 0, i32 0
  %5 = getelementptr inbounds [9 x i64], ptr %4, i64 0, i64 1
  %6 = getelementptr inbounds %class.JavaCallArguments, ptr %3, i32 0, i32 2
  store ptr %5, ptr %6, align 8
  %7 = getelementptr inbounds %class.JavaCallArguments, ptr %3, i32 0, i32 1
  %8 = getelementptr inbounds [9 x i8], ptr %7, i64 0, i64 1
  %9 = getelementptr inbounds %class.JavaCallArguments, ptr %3, i32 0, i32 3
  store ptr %8, ptr %9, align 8
  %10 = getelementptr inbounds %class.JavaCallArguments, ptr %3, i32 0, i32 5
  store i32 8, ptr %10, align 4
  %11 = getelementptr inbounds %class.JavaCallArguments, ptr %3, i32 0, i32 4
  store i32 0, ptr %11, align 8
  %12 = getelementptr inbounds %class.JavaCallArguments, ptr %3, i32 0, i32 6
  store i8 0, ptr %12, align 8
  ret void
}

; Function Attrs: mustprogress nounwind uwtable
define linkonce_odr hidden void @_ZN6HandleC2Ev(ptr noundef nonnull align 8 dereferenceable(8) %0) unnamed_addr #1 comdat align 2 {
  %2 = alloca ptr, align 8
  store ptr %0, ptr %2, align 8
  %3 = load ptr, ptr %2, align 8
  %4 = getelementptr inbounds %class.Handle, ptr %3, i32 0, i32 0
  store ptr null, ptr %4, align 8
  ret void
}

; Function Attrs: mustprogress nounwind uwtable
define linkonce_odr hidden noundef zeroext i1 @_ZNK12ThreadShadow21has_pending_exceptionEv(ptr noundef nonnull align 8 dereferenceable(28) %0) #1 comdat align 2 {
  %2 = alloca ptr, align 8
  store ptr %0, ptr %2, align 8
  %3 = load ptr, ptr %2, align 8
  %4 = getelementptr inbounds %class.ThreadShadow, ptr %3, i32 0, i32 1
  %5 = load ptr, ptr %4, align 8
  %6 = icmp ne ptr %5, null
  ret i1 %6
}

; Function Attrs: mustprogress nounwind uwtable
define linkonce_odr hidden void @_ZN17JavaCallArguments8push_oopE6Handle(ptr noundef nonnull align 8 dereferenceable(128) %0, ptr %1) #1 comdat align 2 {
  %3 = alloca %class.Handle, align 8
  %4 = alloca ptr, align 8
  %5 = getelementptr inbounds %class.Handle, ptr %3, i32 0, i32 0
  store ptr %1, ptr %5, align 8
  store ptr %0, ptr %4, align 8
  %6 = load ptr, ptr %4, align 8
  %7 = getelementptr inbounds %class.JavaCallArguments, ptr %6, i32 0, i32 3
  %8 = load ptr, ptr %7, align 8
  %9 = getelementptr inbounds %class.JavaCallArguments, ptr %6, i32 0, i32 4
  %10 = load i32, ptr %9, align 8
  %11 = sext i32 %10 to i64
  %12 = getelementptr inbounds i8, ptr %8, i64 %11
  store i8 2, ptr %12, align 1
  %13 = getelementptr inbounds %class.JavaCallArguments, ptr %6, i32 0, i32 2
  %14 = load ptr, ptr %13, align 8
  %15 = getelementptr inbounds %class.JavaCallArguments, ptr %6, i32 0, i32 4
  call void @_ZN8JNITypes7put_objERK6HandlePlRi(ptr noundef nonnull align 8 dereferenceable(8) %3, ptr noundef %14, ptr noundef nonnull align 4 dereferenceable(4) %15)
  ret void
}

; Function Attrs: mustprogress nounwind uwtable
define linkonce_odr hidden void @_ZN17JavaCallArgumentsC2E6Handle(ptr noundef nonnull align 8 dereferenceable(128) %0, ptr %1) unnamed_addr #1 comdat align 2 {
  %3 = alloca %class.Handle, align 8
  %4 = alloca ptr, align 8
  %5 = alloca %class.Handle, align 8
  %6 = getelementptr inbounds %class.Handle, ptr %3, i32 0, i32 0
  store ptr %1, ptr %6, align 8
  store ptr %0, ptr %4, align 8
  %7 = load ptr, ptr %4, align 8
  %8 = getelementptr inbounds %class.JavaCallArguments, ptr %7, i32 0, i32 7
  call void @_ZN6HandleC2Ev(ptr noundef nonnull align 8 dereferenceable(8) %8)
  call void @_ZN17JavaCallArguments10initializeEv(ptr noundef nonnull align 8 dereferenceable(128) %7)
  call void @llvm.memcpy.p0.p0.i64(ptr align 8 %5, ptr align 8 %3, i64 8, i1 false)
  %9 = getelementptr inbounds %class.Handle, ptr %5, i32 0, i32 0
  %10 = load ptr, ptr %9, align 8
  call void @_ZN17JavaCallArguments8push_oopE6Handle(ptr noundef nonnull align 8 dereferenceable(128) %7, ptr %10)
  ret void
}

; Function Attrs: mustprogress nounwind uwtable
define hidden void @_ZN9JavaCalls12call_specialEP9JavaValue6HandleP5KlassP6SymbolS6_S2_P10JavaThread(ptr noundef %0, ptr %1, ptr noundef %2, ptr noundef %3, ptr noundef %4, ptr %5, ptr noundef %6) #1 align 2 {
  %8 = alloca %class.Handle, align 8
  %9 = alloca %class.Handle, align 8
  %10 = alloca ptr, align 8
  %11 = alloca ptr, align 8
  %12 = alloca ptr, align 8
  %13 = alloca ptr, align 8
  %14 = alloca ptr, align 8
  %15 = alloca %class.JavaCallArguments, align 8
  %16 = alloca %class.Handle, align 8
  %17 = alloca %class.Handle, align 8
  %18 = getelementptr inbounds %class.Handle, ptr %8, i32 0, i32 0
  store ptr %1, ptr %18, align 8
  %19 = getelementptr inbounds %class.Handle, ptr %9, i32 0, i32 0
  store ptr %5, ptr %19, align 8
  store ptr %0, ptr %10, align 8
  store ptr %2, ptr %11, align 8
  store ptr %3, ptr %12, align 8
  store ptr %4, ptr %13, align 8
  store ptr %6, ptr %14, align 8
  call void @llvm.memcpy.p0.p0.i64(ptr align 8 %16, ptr align 8 %8, i64 8, i1 false)
  %20 = getelementptr inbounds %class.Handle, ptr %16, i32 0, i32 0
  %21 = load ptr, ptr %20, align 8
  call void @_ZN17JavaCallArgumentsC2E6Handle(ptr noundef nonnull align 8 dereferenceable(128) %15, ptr %21)
  call void @llvm.memcpy.p0.p0.i64(ptr align 8 %17, ptr align 8 %9, i64 8, i1 false)
  %22 = getelementptr inbounds %class.Handle, ptr %17, i32 0, i32 0
  %23 = load ptr, ptr %22, align 8
  call void @_ZN17JavaCallArguments8push_oopE6Handle(ptr noundef nonnull align 8 dereferenceable(128) %15, ptr %23)
  %24 = load ptr, ptr %10, align 8
  %25 = load ptr, ptr %11, align 8
  %26 = load ptr, ptr %12, align 8
  %27 = load ptr, ptr %13, align 8
  %28 = load ptr, ptr %14, align 8
  call void @_ZN9JavaCalls12call_specialEP9JavaValueP5KlassP6SymbolS5_P17JavaCallArgumentsP10JavaThread(ptr noundef %24, ptr noundef %25, ptr noundef %26, ptr noundef %27, ptr noundef %15, ptr noundef %28)
  %29 = load ptr, ptr %14, align 8
  %30 = call noundef zeroext i1 @_ZNK12ThreadShadow21has_pending_exceptionEv(ptr noundef nonnull align 8 dereferenceable(28) %29)
  br i1 %30, label %31, label %32

31:                                               ; preds = %7
  br label %32

32:                                               ; preds = %31, %7
  ret void
}